(dp0
S'indigo'
p1
S'#4b0082'
p2
sS'gold'
p3
S'#ffd700'
p4
sS'firebrick'
p5
S'#b22222'
p6
sS'indianred'
p7
S'#cd5c5c'
p8
sS'yellow'
p9
S'#ffff00'
p10
sS'darkolivegreen'
p11
S'#556b2f'
p12
sS'darkseagreen'
p13
S'#8fbc8f'
p14
sS'slategrey'
p15
S'#708090'
p16
sS'darkslategrey'
p17
S'#2f4f4f'
p18
sS'mediumvioletred'
p19
S'#c71585'
p20
sS'mediumorchid'
p21
S'#ba55d3'
p22
sS'chartreuse'
p23
S'#7fff00'
p24
sS'mediumblue'
p25
S'#0000cd'
p26
sS'black'
p27
S'#000000'
p28
sS'springgreen'
p29
S'#00ff7f'
p30
sS'orange'
p31
S'#ffa500'
p32
sS'lightsalmon'
p33
S'#ffa07a'
p34
sS'brown'
p35
S'#a52a2a'
p36
sS'turquoise'
p37
S'#40e0d0'
p38
sS'lightseagreen'
p39
S'#20b2aa'
p40
sS'cyan'
p41
S'#00ffff'
p42
sS'silver'
p43
S'#c0c0c0'
p44
sS'skyblue'
p45
S'#87ceeb'
p46
sS'darkturquoise'
p47
S'#00ced1'
p48
sS'goldenrod'
p49
S'#daa520'
p50
sS'darkgreen'
p51
S'#006400'
p52
sS'darkviolet'
p53
S'#9400d3'
p54
sS'lightpink'
p55
S'#ffb6c1'
p56
sS'teal'
p57
S'#008080'
p58
sS'darkmagenta'
p59
S'#8b008b'
p60
sS'lightgoldenrodyellow'
p61
S'#fafad2'
p62
sS'lavender'
p63
S'#e6e6fa'
p64
sS'yellowgreen'
p65
S'#9acd32'
p66
sS'thistle'
p67
S'#d8bfd8'
p68
sS'violet'
p69
S'#ee82ee'
p70
sS'navy'
p71
S'#000080'
p72
sS'dimgrey'
p73
S'#696969'
p74
sS'orchid'
p75
S'#da70d6'
p76
sS'blue'
p77
S'#0000ff'
p78
sS'ghostwhite'
p79
S'#f8f8ff'
p80
sS'honeydew'
p81
S'#f0fff0'
p82
sS'cornflowerblue'
p83
S'#6495ed'
p84
sS'darkblue'
p85
S'#00008b'
p86
sS'darkkhaki'
p87
S'#bdb76b'
p88
sS'mediumpurple'
p89
S'#9370db'
p90
sS'cornsilk'
p91
S'#fff8dc'
p92
sS'red'
p93
S'#ff0000'
p94
sS'bisque'
p95
S'#ffe4c4'
p96
sS'burlywood'
p97
S'#deb887'
p98
sS'darkcyan'
p99
S'#008b8b'
p100
sS'khaki'
p101
S'#f0e68c'
p102
sS'wheat'
p103
S'#f5deb3'
p104
sS'deepskyblue'
p105
S'#00bfff'
p106
sS'darkred'
p107
S'#8b0000'
p108
sS'steelblue'
p109
S'#4682b4'
p110
sS'aliceblue'
p111
S'#f0f8ff'
p112
sS'lightslategrey'
p113
S'#778899'
p114
sS'gainsboro'
p115
S'#dcdcdc'
p116
sS'mediumturquoise'
p117
S'#48d1cc'
p118
sS'floralwhite'
p119
S'#fffaf0'
p120
sS'coral'
p121
S'#ff7f50'
p122
sS'purple'
p123
S'#800080'
p124
sS'lightgrey'
p125
S'#d3d3d3'
p126
sS'lightcyan'
p127
S'#e0ffff'
p128
sS'darksalmon'
p129
S'#e9967a'
p130
sS'beige'
p131
S'#f5f5dc'
p132
sS'azure'
p133
S'#f0ffff'
p134
sS'lightsteelblue'
p135
S'#b0c4de'
p136
sS'oldlace'
p137
S'#fdf5e6'
p138
sS'greenyellow'
p139
S'#adff2f'
p140
sS'olivedrab'
p141
S'#6b8e23'
p142
sS'sienna'
p143
S'#a0522d'
p144
sS'lightcoral'
p145
S'#f08080'
p146
sS'orangered'
p147
S'#ff4500'
p148
sS'navajowhite'
p149
S'#ffdead'
p150
sS'lime'
p151
S'#00ff00'
p152
sS'palegreen'
p153
S'#98fb98'
p154
sS'mistyrose'
p155
S'#ffe4e1'
p156
sS'seashell'
p157
S'#fff5ee'
p158
sS'mediumspringgreen'
p159
S'#00fa9a'
p160
sS'royalblue'
p161
S'#4169e1'
p162
sS'papayawhip'
p163
S'#ffefd5'
p164
sS'blanchedalmond'
p165
S'#ffebcd'
p166
sS'peru'
p167
S'#cd853f'
p168
sS'aquamarine'
p169
S'#7fffd4'
p170
sS'white'
p171
S'#ffffff'
p172
sS'ivory'
p173
S'#fffff0'
p174
sS'dodgerblue'
p175
S'#1e90ff'
p176
sS'lemonchiffon'
p177
S'#fffacd'
p178
sS'lightgreen'
p179
S'#90ee90'
p180
sS'crimson'
p181
S'#dc143c'
p182
sS'forestgreen'
p183
S'#228b22'
p184
sS'darkgrey'
p185
S'#a9a9a9'
p186
sS'olive'
p187
S'#808000'
p188
sS'mintcream'
p189
S'#f5fffa'
p190
sS'antiquewhite'
p191
S'#faebd7'
p192
sS'hotpink'
p193
S'#ff69b4'
p194
sS'moccasin'
p195
S'#ffe4b5'
p196
sS'limegreen'
p197
S'#32cd32'
p198
sS'saddlebrown'
p199
S'#8b4513'
p200
sS'grey'
p201
S'#808080'
p202
sS'darkslateblue'
p203
S'#483d8b'
p204
sS'lightskyblue'
p205
S'#87cefa'
p206
sS'deeppink'
p207
S'#ff1493'
p208
sS'plum'
p209
S'#dda0dd'
p210
sS'darkgoldenrod'
p211
S'#b8860b'
p212
sS'maroon'
p213
S'#800000'
p214
sS'sandybrown'
p215
S'#f4a460'
p216
sS'magenta'
p217
S'#ff00ff'
p218
sS'tan'
p219
S'#d2b48c'
p220
sS'rosybrown'
p221
S'#bc8f8f'
p222
sS'pink'
p223
S'#ffc0cb'
p224
sS'lightblue'
p225
S'#add8e6'
p226
sS'palevioletred'
p227
S'#db7093'
p228
sS'mediumseagreen'
p229
S'#3cb371'
p230
sS'slateblue'
p231
S'#6a5acd'
p232
sS'darkorange'
p233
S'#ff8c00'
p234
sS'powderblue'
p235
S'#b0e0e6'
p236
sS'seagreen'
p237
S'#2e8b57'
p238
sS'snow'
p239
S'#fffafa'
p240
sS'mediumslateblue'
p241
S'#7b68ee'
p242
sS'midnightblue'
p243
S'#191970'
p244
sS'paleturquoise'
p245
S'#afeeee'
p246
sS'palegoldenrod'
p247
S'#eee8aa'
p248
sS'whitesmoke'
p249
S'#f5f5f5'
p250
sS'darkorchid'
p251
S'#9932cc'
p252
sS'salmon'
p253
S'#fa8072'
p254
sS'lawngreen'
p255
S'#7cfc00'
p256
sS'chocolate'
p257
S'#d2691e'
p258
sS'tomato'
p259
S'#ff6347'
p260
sS'cadetblue'
p261
S'#5f9ea0'
p262
sS'lightyellow'
p263
S'#ffffe0'
p264
sS'lavenderblush'
p265
S'#fff0f5'
p266
sS'linen'
p267
S'#faf0e6'
p268
sS'mediumaquamarine'
p269
S'#66cdaa'
p270
sS'green'
p271
S'#008000'
p272
sS'blueviolet'
p273
S'#8a2be2'
p274
sS'peachpuff'
p275
S'#ffdab9'
p276
s.