(dp0
S'#7cfc00'
p1
S'lawngreen'
p2
sS'#808080'
p3
S'grey'
p4
sS'#00008b'
p5
S'darkblue'
p6
sS'#98fb98'
p7
S'palegreen'
p8
sS'#fffff0'
p9
S'ivory'
p10
sS'#9400d3'
p11
S'darkviolet'
p12
sS'#b8860b'
p13
S'darkgoldenrod'
p14
sS'#fffaf0'
p15
S'floralwhite'
p16
sS'#ffffff'
p17
S'white'
p18
sS'#fff5ee'
p19
S'seashell'
p20
sS'#ff8c00'
p21
S'darkorange'
p22
sS'#ffefd5'
p23
S'papayawhip'
p24
sS'#5f9ea0'
p25
S'cadetblue'
p26
sS'#2f4f4f'
p27
S'darkslategrey'
p28
sS'#afeeee'
p29
S'paleturquoise'
p30
sS'#add8e6'
p31
S'lightblue'
p32
sS'#fffafa'
p33
S'snow'
p34
sS'#1e90ff'
p35
S'dodgerblue'
p36
sS'#000000'
p37
S'black'
p38
sS'#8fbc8f'
p39
S'darkseagreen'
p40
sS'#7fffd4'
p41
S'aquamarine'
p42
sS'#ffe4e1'
p43
S'mistyrose'
p44
sS'#800000'
p45
S'maroon'
p46
sS'#6495ed'
p47
S'cornflowerblue'
p48
sS'#4169e1'
p49
S'royalblue'
p50
sS'#40e0d0'
p51
S'turquoise'
p52
sS'#8b008b'
p53
S'darkmagenta'
p54
sS'#00ced1'
p55
S'darkturquoise'
p56
sS'#00fa9a'
p57
S'mediumspringgreen'
p58
sS'#ee82ee'
p59
S'violet'
p60
sS'#8b0000'
p61
S'darkred'
p62
sS'#adff2f'
p63
S'greenyellow'
p64
sS'#b0e0e6'
p65
S'powderblue'
p66
sS'#7b68ee'
p67
S'mediumslateblue'
p68
sS'#ff00ff'
p69
S'magenta'
p70
sS'#4682b4'
p71
S'steelblue'
p72
sS'#ff6347'
p73
S'tomato'
p74
sS'#00ff7f'
p75
S'springgreen'
p76
sS'#ff7f50'
p77
S'coral'
p78
sS'#ffd700'
p79
S'gold'
p80
sS'#f5fffa'
p81
S'mintcream'
p82
sS'#008080'
p83
S'teal'
p84
sS'#f0fff0'
p85
S'honeydew'
p86
sS'#d2b48c'
p87
S'tan'
p88
sS'#cd5c5c'
p89
S'indianred'
p90
sS'#ffa07a'
p91
S'lightsalmon'
p92
sS'#bdb76b'
p93
S'darkkhaki'
p94
sS'#778899'
p95
S'lightslategrey'
p96
sS'#008000'
p97
S'green'
p98
sS'#faebd7'
p99
S'antiquewhite'
p100
sS'#0000ff'
p101
S'blue'
p102
sS'#c0c0c0'
p103
S'silver'
p104
sS'#228b22'
p105
S'forestgreen'
p106
sS'#7fff00'
p107
S'chartreuse'
p108
sS'#d3d3d3'
p109
S'lightgrey'
p110
sS'#fafad2'
p111
S'lightgoldenrodyellow'
p112
sS'#fff8dc'
p113
S'cornsilk'
p114
sS'#f4a460'
p115
S'sandybrown'
p116
sS'#6b8e23'
p117
S'olivedrab'
p118
sS'#9932cc'
p119
S'darkorchid'
p120
sS'#fdf5e6'
p121
S'oldlace'
p122
sS'#3cb371'
p123
S'mediumseagreen'
p124
sS'#d8bfd8'
p125
S'thistle'
p126
sS'#808000'
p127
S'olive'
p128
sS'#a9a9a9'
p129
S'darkgrey'
p130
sS'#f5f5dc'
p131
S'beige'
p132
sS'#f5deb3'
p133
S'wheat'
p134
sS'#ffa500'
p135
S'orange'
p136
sS'#00ff00'
p137
S'lime'
p138
sS'#90ee90'
p139
S'lightgreen'
p140
sS'#a0522d'
p141
S'sienna'
p142
sS'#8b4513'
p143
S'saddlebrown'
p144
sS'#00ffff'
p145
S'cyan'
p146
sS'#9acd32'
p147
S'yellowgreen'
p148
sS'#66cdaa'
p149
S'mediumaquamarine'
p150
sS'#b22222'
p151
S'firebrick'
p152
sS'#dda0dd'
p153
S'plum'
p154
sS'#ffebcd'
p155
S'blanchedalmond'
p156
sS'#008b8b'
p157
S'darkcyan'
p158
sS'#da70d6'
p159
S'orchid'
p160
sS'#fffacd'
p161
S'lemonchiffon'
p162
sS'#f5f5f5'
p163
S'whitesmoke'
p164
sS'#ffc0cb'
p165
S'pink'
p166
sS'#f0e68c'
p167
S'khaki'
p168
sS'#ffffe0'
p169
S'lightyellow'
p170
sS'#f0ffff'
p171
S'azure'
p172
sS'#f0f8ff'
p173
S'aliceblue'
p174
sS'#daa520'
p175
S'goldenrod'
p176
sS'#c71585'
p177
S'mediumvioletred'
p178
sS'#b0c4de'
p179
S'lightsteelblue'
p180
sS'#fa8072'
p181
S'salmon'
p182
sS'#708090'
p183
S'slategrey'
p184
sS'#ff1493'
p185
S'deeppink'
p186
sS'#6a5acd'
p187
S'slateblue'
p188
sS'#2e8b57'
p189
S'seagreen'
p190
sS'#e9967a'
p191
S'darksalmon'
p192
sS'#ba55d3'
p193
S'mediumorchid'
p194
sS'#ff4500'
p195
S'orangered'
p196
sS'#a52a2a'
p197
S'brown'
p198
sS'#696969'
p199
S'dimgrey'
p200
sS'#191970'
p201
S'midnightblue'
p202
sS'#dc143c'
p203
S'crimson'
p204
sS'#ffff00'
p205
S'yellow'
p206
sS'#556b2f'
p207
S'darkolivegreen'
p208
sS'#eee8aa'
p209
S'palegoldenrod'
p210
sS'#cd853f'
p211
S'peru'
p212
sS'#faf0e6'
p213
S'linen'
p214
sS'#ffdab9'
p215
S'peachpuff'
p216
sS'#d2691e'
p217
S'chocolate'
p218
sS'#f8f8ff'
p219
S'ghostwhite'
p220
sS'#ffe4b5'
p221
S'moccasin'
p222
sS'#ff69b4'
p223
S'hotpink'
p224
sS'#e0ffff'
p225
S'lightcyan'
p226
sS'#87cefa'
p227
S'lightskyblue'
p228
sS'#ffdead'
p229
S'navajowhite'
p230
sS'#483d8b'
p231
S'darkslateblue'
p232
sS'#32cd32'
p233
S'limegreen'
p234
sS'#e6e6fa'
p235
S'lavender'
p236
sS'#800080'
p237
S'purple'
p238
sS'#9370db'
p239
S'mediumpurple'
p240
sS'#006400'
p241
S'darkgreen'
p242
sS'#0000cd'
p243
S'mediumblue'
p244
sS'#00bfff'
p245
S'deepskyblue'
p246
sS'#ffe4c4'
p247
S'bisque'
p248
sS'#48d1cc'
p249
S'mediumturquoise'
p250
sS'#4b0082'
p251
S'indigo'
p252
sS'#f08080'
p253
S'lightcoral'
p254
sS'#ff0000'
p255
S'red'
p256
sS'#bc8f8f'
p257
S'rosybrown'
p258
sS'#db7093'
p259
S'palevioletred'
p260
sS'#ffb6c1'
p261
S'lightpink'
p262
sS'#20b2aa'
p263
S'lightseagreen'
p264
sS'#87ceeb'
p265
S'skyblue'
p266
sS'#fff0f5'
p267
S'lavenderblush'
p268
sS'#8a2be2'
p269
S'blueviolet'
p270
sS'#000080'
p271
S'navy'
p272
sS'#dcdcdc'
p273
S'gainsboro'
p274
sS'#deb887'
p275
S'burlywood'
p276
s.